target datalayout = "e-m:e-p270:32:32-p271:32:32-p272:64:64-i64:64-i128:128-f80:128-n8:16:32:64-S128"
target triple = "x86_64-pc-linux-gnu"

; Function Attrs: nounwind uwtable
define hidden double @lexbor_conv_data_to_double(ptr noundef %0, i64 noundef %1) #0 {
  %3 = alloca ptr, align 8
  %4 = alloca i64, align 8
  %5 = alloca i32, align 4
  %6 = alloca i32, align 4
  %7 = alloca i32, align 4
  %8 = alloca i8, align 1
  %9 = alloca ptr, align 8
  %10 = alloca i8, align 1
  %11 = alloca i8, align 1
  %12 = alloca double, align 8
  %13 = alloca ptr, align 8
  %14 = alloca ptr, align 8
  %15 = alloca ptr, align 8
  %16 = alloca ptr, align 8
  %17 = alloca [128 x i8], align 16
  store ptr %0, ptr %3, align 8, !tbaa !14
  store i64 %1, ptr %4, align 8, !tbaa !11
  call void @llvm.lifetime.start.p0(i64 4, ptr %5) #3
  call void @llvm.lifetime.start.p0(i64 4, ptr %6) #3
  call void @llvm.lifetime.start.p0(i64 4, ptr %7) #3
  call void @llvm.lifetime.start.p0(i64 1, ptr %8) #3
  call void @llvm.lifetime.start.p0(i64 8, ptr %9) #3
  call void @llvm.lifetime.start.p0(i64 1, ptr %10) #3
  call void @llvm.lifetime.start.p0(i64 1, ptr %11) #3
  call void @llvm.lifetime.start.p0(i64 8, ptr %12) #3
  call void @llvm.lifetime.start.p0(i64 8, ptr %13) #3
  call void @llvm.lifetime.start.p0(i64 8, ptr %14) #3
  call void @llvm.lifetime.start.p0(i64 8, ptr %15) #3
  call void @llvm.lifetime.start.p0(i64 8, ptr %16) #3
  call void @llvm.lifetime.start.p0(i64 128, ptr %17) #3
  %18 = load ptr, ptr %3, align 8, !tbaa !14
  %19 = load ptr, ptr %18, align 8, !tbaa !8
  %20 = load i64, ptr %4, align 8, !tbaa !11
  %21 = getelementptr inbounds nuw i8, ptr %19, i64 %20
  store ptr %21, ptr %16, align 8, !tbaa !8
  store i32 0, ptr %5, align 4, !tbaa !16
  store i32 0, ptr %7, align 4, !tbaa !16
  %22 = getelementptr inbounds [128 x i8], ptr %17, i64 0, i64 0
  store ptr %22, ptr %9, align 8, !tbaa !8
  %23 = getelementptr inbounds [128 x i8], ptr %17, i64 0, i64 0
  %24 = getelementptr inbounds nuw i8, ptr %23, i64 128
  store ptr %24, ptr %15, align 8, !tbaa !8
  store i8 0, ptr %10, align 1, !tbaa !18
  %25 = load ptr, ptr %3, align 8, !tbaa !14
  %26 = load ptr, ptr %25, align 8, !tbaa !8
  %27 = load i8, ptr %26, align 1, !tbaa !13
  %28 = zext i8 %27 to i32
  switch i32 %28, label %34 [
    i32 45, label %29
    i32 43, label %30
  ]

29:                                               ; preds = %2
  store i8 1, ptr %10, align 1, !tbaa !18
  br label %30

30:                                               ; preds = %2, %29
  %31 = load ptr, ptr %3, align 8, !tbaa !14
  %32 = load ptr, ptr %31, align 8, !tbaa !8
  %33 = getelementptr inbounds nuw i8, ptr %32, i32 1
  store ptr %33, ptr %31, align 8, !tbaa !8
  br label %34

34:                                               ; preds = %2, %30
  br label %35

35:                                               ; preds = %34
  %36 = load ptr, ptr %3, align 8, !tbaa !14
  %37 = load ptr, ptr %36, align 8, !tbaa !8
  store ptr %37, ptr %14, align 8, !tbaa !8
  br label %38

38:                                               ; preds = %65, %35
  %39 = load ptr, ptr %14, align 8, !tbaa !8
  %40 = load ptr, ptr %16, align 8, !tbaa !8
  %41 = icmp ult ptr %39, %40
  br i1 %41, label %42, label %68

42:                                               ; preds = %38
  %43 = load ptr, ptr %14, align 8, !tbaa !8
  %44 = load i8, ptr %43, align 1, !tbaa !13
  %45 = zext i8 %44 to i32
  %46 = sub nsw i32 %45, 48
  %47 = trunc i32 %46 to i8
  store i8 %47, ptr %8, align 1, !tbaa !13
  %48 = load i8, ptr %8, align 1, !tbaa !13
  %49 = zext i8 %48 to i32
  %50 = icmp sgt i32 %49, 9
  br i1 %50, label %51, label %52

51:                                               ; preds = %42
  br label %68

52:                                               ; preds = %42
  %53 = load ptr, ptr %9, align 8, !tbaa !8
  %54 = load ptr, ptr %15, align 8, !tbaa !8
  %55 = icmp ult ptr %53, %54
  br i1 %55, label %56, label %61

56:                                               ; preds = %52
  %57 = load ptr, ptr %14, align 8, !tbaa !8
  %58 = load i8, ptr %57, align 1, !tbaa !13
  %59 = load ptr, ptr %9, align 8, !tbaa !8
  %60 = getelementptr inbounds nuw i8, ptr %59, i32 1
  store ptr %60, ptr %9, align 8, !tbaa !8
  store i8 %58, ptr %59, align 1, !tbaa !13
  br label %64

61:                                               ; preds = %52
  %62 = load i32, ptr %7, align 4, !tbaa !16
  %63 = add nsw i32 %62, 1
  store i32 %63, ptr %7, align 4, !tbaa !16
  br label %64

64:                                               ; preds = %61, %56
  br label %65

65:                                               ; preds = %64
  %66 = load ptr, ptr %14, align 8, !tbaa !8
  %67 = getelementptr inbounds nuw i8, ptr %66, i32 1
  store ptr %67, ptr %14, align 8, !tbaa !8
  br label %38

68:                                               ; preds = %51, %38
  %69 = load ptr, ptr %14, align 8, !tbaa !8
  %70 = load ptr, ptr %16, align 8, !tbaa !8
  %71 = icmp ult ptr %69, %70
  br i1 %71, label %72, label %111

72:                                               ; preds = %68
  %73 = load ptr, ptr %14, align 8, !tbaa !8
  %74 = load i8, ptr %73, align 1, !tbaa !13
  %75 = zext i8 %74 to i32
  %76 = icmp eq i32 %75, 46
  br i1 %76, label %77, label %111

77:                                               ; preds = %72
  %78 = load ptr, ptr %14, align 8, !tbaa !8
  %79 = getelementptr inbounds nuw i8, ptr %78, i32 1
  store ptr %79, ptr %14, align 8, !tbaa !8
  br label %80

80:                                               ; preds = %107, %77
  %81 = load ptr, ptr %14, align 8, !tbaa !8
  %82 = load ptr, ptr %16, align 8, !tbaa !8
  %83 = icmp ult ptr %81, %82
  br i1 %83, label %84, label %110

84:                                               ; preds = %80
  %85 = load ptr, ptr %14, align 8, !tbaa !8
  %86 = load i8, ptr %85, align 1, !tbaa !13
  %87 = zext i8 %86 to i32
  %88 = sub nsw i32 %87, 48
  %89 = trunc i32 %88 to i8
  store i8 %89, ptr %8, align 1, !tbaa !13
  %90 = load i8, ptr %8, align 1, !tbaa !13
  %91 = zext i8 %90 to i32
  %92 = icmp sgt i32 %91, 9
  br i1 %92, label %93, label %94

93:                                               ; preds = %84
  br label %110

94:                                               ; preds = %84
  %95 = load ptr, ptr %9, align 8, !tbaa !8
  %96 = load ptr, ptr %15, align 8, !tbaa !8
  %97 = icmp ult ptr %95, %96
  br i1 %97, label %98, label %105

98:                                               ; preds = %94
  %99 = load ptr, ptr %14, align 8, !tbaa !8
  %100 = load i8, ptr %99, align 1, !tbaa !13
  %101 = load ptr, ptr %9, align 8, !tbaa !8
  %102 = getelementptr inbounds nuw i8, ptr %101, i32 1
  store ptr %102, ptr %9, align 8, !tbaa !8
  store i8 %100, ptr %101, align 1, !tbaa !13
  %103 = load i32, ptr %5, align 4, !tbaa !16
  %104 = add nsw i32 %103, -1
  store i32 %104, ptr %5, align 4, !tbaa !16
  br label %106

105:                                              ; preds = %94
  br label %106

106:                                              ; preds = %105, %98
  br label %107

107:                                              ; preds = %106
  %108 = load ptr, ptr %14, align 8, !tbaa !8
  %109 = getelementptr inbounds nuw i8, ptr %108, i32 1
  store ptr %109, ptr %14, align 8, !tbaa !8
  br label %80

110:                                              ; preds = %93, %80
  br label %111

111:                                              ; preds = %110, %72, %68
  %112 = load ptr, ptr %14, align 8, !tbaa !8
  %113 = getelementptr inbounds i8, ptr %112, i64 1
  store ptr %113, ptr %13, align 8, !tbaa !8
  %114 = load ptr, ptr %13, align 8, !tbaa !8
  %115 = load ptr, ptr %16, align 8, !tbaa !8
  %116 = icmp ult ptr %114, %115
  br i1 %116, label %117, label %200

117:                                              ; preds = %111
  %118 = load ptr, ptr %14, align 8, !tbaa !8
  %119 = load i8, ptr %118, align 1, !tbaa !13
  %120 = zext i8 %119 to i32
  %121 = icmp eq i32 %120, 101
  br i1 %121, label %127, label %122

122:                                              ; preds = %117
  %123 = load ptr, ptr %14, align 8, !tbaa !8
  %124 = load i8, ptr %123, align 1, !tbaa !13
  %125 = zext i8 %124 to i32
  %126 = icmp eq i32 %125, 69
  br i1 %126, label %127, label %200

127:                                              ; preds = %122, %117
  store i8 0, ptr %11, align 1, !tbaa !18
  %128 = load ptr, ptr %13, align 8, !tbaa !8
  %129 = getelementptr inbounds i8, ptr %128, i64 1
  %130 = load ptr, ptr %16, align 8, !tbaa !8
  %131 = icmp ult ptr %129, %130
  br i1 %131, label %132, label %150

132:                                              ; preds = %127
  %133 = load ptr, ptr %13, align 8, !tbaa !8
  %134 = load i8, ptr %133, align 1, !tbaa !13
  %135 = zext i8 %134 to i32
  %136 = icmp eq i32 %135, 45
  br i1 %136, label %137, label %140

137:                                              ; preds = %132
  %138 = load ptr, ptr %13, align 8, !tbaa !8
  %139 = getelementptr inbounds nuw i8, ptr %138, i32 1
  store ptr %139, ptr %13, align 8, !tbaa !8
  store i8 1, ptr %11, align 1, !tbaa !18
  br label %149

140:                                              ; preds = %132
  %141 = load ptr, ptr %13, align 8, !tbaa !8
  %142 = load i8, ptr %141, align 1, !tbaa !13
  %143 = zext i8 %142 to i32
  %144 = icmp eq i32 %143, 43
  br i1 %144, label %145, label %148

145:                                              ; preds = %140
  %146 = load ptr, ptr %13, align 8, !tbaa !8
  %147 = getelementptr inbounds nuw i8, ptr %146, i32 1
  store ptr %147, ptr %13, align 8, !tbaa !8
  br label %148

148:                                              ; preds = %145, %140
  br label %149

149:                                              ; preds = %148, %137
  br label %150

150:                                              ; preds = %149, %127
  %151 = load ptr, ptr %13, align 8, !tbaa !8
  %152 = load i8, ptr %151, align 1, !tbaa !13
  %153 = zext i8 %152 to i32
  %154 = sub nsw i32 %153, 48
  %155 = trunc i32 %154 to i8
  store i8 %155, ptr %8, align 1, !tbaa !13
  %156 = load i8, ptr %8, align 1, !tbaa !13
  %157 = zext i8 %156 to i32
  %158 = icmp sle i32 %157, 9
  br i1 %158, label %159, label %199

159:                                              ; preds = %150
  %160 = load i8, ptr %8, align 1, !tbaa !13
  %161 = zext i8 %160 to i32
  store i32 %161, ptr %6, align 4, !tbaa !16
  %162 = load ptr, ptr %13, align 8, !tbaa !8
  %163 = getelementptr inbounds i8, ptr %162, i64 1
  store ptr %163, ptr %14, align 8, !tbaa !8
  br label %164

164:                                              ; preds = %184, %159
  %165 = load ptr, ptr %14, align 8, !tbaa !8
  %166 = load ptr, ptr %16, align 8, !tbaa !8
  %167 = icmp ult ptr %165, %166
  br i1 %167, label %168, label %187

168:                                              ; preds = %164
  %169 = load ptr, ptr %14, align 8, !tbaa !8
  %170 = load i8, ptr %169, align 1, !tbaa !13
  %171 = zext i8 %170 to i32
  %172 = sub nsw i32 %171, 48
  %173 = trunc i32 %172 to i8
  store i8 %173, ptr %8, align 1, !tbaa !13
  %174 = load i8, ptr %8, align 1, !tbaa !13
  %175 = zext i8 %174 to i32
  %176 = icmp sgt i32 %175, 9
  br i1 %176, label %177, label %178

177:                                              ; preds = %168
  br label %187

178:                                              ; preds = %168
  %179 = load i32, ptr %6, align 4, !tbaa !16
  %180 = mul nsw i32 %179, 10
  %181 = load i8, ptr %8, align 1, !tbaa !13
  %182 = zext i8 %181 to i32
  %183 = add nsw i32 %180, %182
  store i32 %183, ptr %6, align 4, !tbaa !16
  br label %184

184:                                              ; preds = %178
  %185 = load ptr, ptr %14, align 8, !tbaa !8
  %186 = getelementptr inbounds nuw i8, ptr %185, i32 1
  store ptr %186, ptr %14, align 8, !tbaa !8
  br label %164

187:                                              ; preds = %177, %164
  %188 = load i8, ptr %11, align 1, !tbaa !18, !range !20, !noundef !21
  %189 = trunc i8 %188 to i1
  br i1 %189, label %190, label %193

190:                                              ; preds = %187
  %191 = load i32, ptr %6, align 4, !tbaa !16
  %192 = sub nsw i32 0, %191
  br label %195

193:                                              ; preds = %187
  %194 = load i32, ptr %6, align 4, !tbaa !16
  br label %195

195:                                              ; preds = %193, %190
  %196 = phi i32 [ %192, %190 ], [ %194, %193 ]
  %197 = load i32, ptr %5, align 4, !tbaa !16
  %198 = add nsw i32 %197, %196
  store i32 %198, ptr %5, align 4, !tbaa !16
  br label %199

199:                                              ; preds = %195, %150
  br label %200

200:                                              ; preds = %199, %122, %111
  %201 = load ptr, ptr %14, align 8, !tbaa !8
  %202 = load ptr, ptr %3, align 8, !tbaa !14
  store ptr %201, ptr %202, align 8, !tbaa !8
  %203 = load i32, ptr %7, align 4, !tbaa !16
  %204 = load i32, ptr %5, align 4, !tbaa !16
  %205 = add nsw i32 %204, %203
  store i32 %205, ptr %5, align 4, !tbaa !16
  %206 = getelementptr inbounds [128 x i8], ptr %17, i64 0, i64 0
  %207 = load ptr, ptr %9, align 8, !tbaa !8
  %208 = getelementptr inbounds [128 x i8], ptr %17, i64 0, i64 0
  %209 = ptrtoint ptr %207 to i64
  %210 = ptrtoint ptr %208 to i64
  %211 = sub i64 %209, %210
  %212 = load i32, ptr %5, align 4, !tbaa !16
  %213 = call double @lexbor_strtod_internal(ptr noundef %206, i64 noundef %211, i32 noundef %212)
  store double %213, ptr %12, align 8, !tbaa !4
  %214 = load i8, ptr %10, align 1, !tbaa !18, !range !20, !noundef !21
  %215 = trunc i8 %214 to i1
  br i1 %215, label %216, label %219

216:                                              ; preds = %200
  %217 = load double, ptr %12, align 8, !tbaa !4
  %218 = fneg double %217
  store double %218, ptr %12, align 8, !tbaa !4
  br label %219

219:                                              ; preds = %216, %200
  %220 = load double, ptr %12, align 8, !tbaa !4
  call void @llvm.lifetime.end.p0(i64 128, ptr %17) #3
  call void @llvm.lifetime.end.p0(i64 8, ptr %16) #3
  call void @llvm.lifetime.end.p0(i64 8, ptr %15) #3
  call void @llvm.lifetime.end.p0(i64 8, ptr %14) #3
  call void @llvm.lifetime.end.p0(i64 8, ptr %13) #3
  call void @llvm.lifetime.end.p0(i64 8, ptr %12) #3
  call void @llvm.lifetime.end.p0(i64 1, ptr %11) #3
  call void @llvm.lifetime.end.p0(i64 1, ptr %10) #3
  call void @llvm.lifetime.end.p0(i64 8, ptr %9) #3
  call void @llvm.lifetime.end.p0(i64 1, ptr %8) #3
  call void @llvm.lifetime.end.p0(i64 4, ptr %7) #3
  call void @llvm.lifetime.end.p0(i64 4, ptr %6) #3
  call void @llvm.lifetime.end.p0(i64 4, ptr %5) #3
  ret double %220
}