; Function Attrs: nounwind uwtable
define hidden double @lexbor_conv_data_to_double(ptr noundef captures(none) %0, i64 noundef %1) local_unnamed_addr #0 {
  %3 = alloca [128 x i8], align 16
  call void @llvm.lifetime.start.p0(i64 128, ptr nonnull %3) #6
  %4 = load ptr, ptr %0, align 8, !tbaa !7
  %5 = getelementptr inbounds nuw i8, ptr %4, i64 %1
  %6 = load i8, ptr %4, align 1, !tbaa !4
  switch i8 %6, label %10 [
    i8 45, label %7
    i8 43, label %8
  ]

7:                                                ; preds = %2
  br label %8

8:                                                ; preds = %7, %2
  %.071 = phi i1 [ false, %2 ], [ true, %7 ]
  %9 = getelementptr inbounds nuw i8, ptr %4, i64 1
  store ptr %9, ptr %0, align 8, !tbaa !7
  br label %10

10:                                               ; preds = %2, %8
  %11 = phi ptr [ %4, %2 ], [ %9, %8 ]
  %.172 = phi i1 [ false, %2 ], [ %.071, %8 ]
  %12 = icmp ult ptr %11, %5
  br i1 %12, label %.lr.ph, label %.critedge

.lr.ph:                                           ; preds = %10, %21
  %.073.ptr.ptr97 = phi ptr [ %.073.ptr.ptr, %21 ], [ %3, %10 ]
  %.06496 = phi ptr [ %22, %21 ], [ %11, %10 ]
  %.073.idx95 = phi i64 [ %.174.idx, %21 ], [ 0, %10 ]
  %.07894 = phi i32 [ %.179, %21 ], [ 0, %10 ]
  %13 = load i8, ptr %.06496, align 1, !tbaa !4
  %14 = add i8 %13, -58
  %15 = icmp ult i8 %14, -10
  br i1 %15, label %24, label %16

16:                                               ; preds = %.lr.ph
  %17 = icmp slt i64 %.073.idx95, 128
  br i1 %17, label %18, label %19

18:                                               ; preds = %16
  %.073.add = add nuw nsw i64 %.073.idx95, 1
  store i8 %13, ptr %.073.ptr.ptr97, align 1, !tbaa !4
  br label %21

19:                                               ; preds = %16
  %20 = add nsw i32 %.07894, 1
  br label %21

21:                                               ; preds = %18, %19
  %.179 = phi i32 [ %.07894, %18 ], [ %20, %19 ]
  %.174.idx = phi i64 [ %.073.add, %18 ], [ %.073.idx95, %19 ]
  %22 = getelementptr inbounds nuw i8, ptr %.06496, i64 1
  %.073.ptr.ptr = getelementptr inbounds nuw i8, ptr %3, i64 %.174.idx
  %23 = icmp ult ptr %22, %5
  br i1 %23, label %.lr.ph, label %.critedge

24:                                               ; preds = %.lr.ph
  %25 = icmp eq i8 %13, 46
  br i1 %25, label %.preheader, label %.critedge

.preheader:                                       ; preds = %24
  %.266100 = getelementptr inbounds nuw i8, ptr %.06496, i64 1
  %.376.ptr101 = getelementptr inbounds nuw i8, ptr %3, i64 %.073.idx95
  %26 = icmp ult ptr %.266100, %5
  br i1 %26, label %.lr.ph106, label %.critedge

.lr.ph106:                                        ; preds = %.preheader, %34
  %.376.ptr105 = phi ptr [ %.376.ptr, %34 ], [ %.376.ptr101, %.preheader ]
  %.266104 = phi ptr [ %.266, %34 ], [ %.266100, %.preheader ]
  %.1103 = phi i32 [ %.2, %34 ], [ 0, %.preheader ]
  %.376.idx102 = phi i64 [ %.477.idx, %34 ], [ %.073.idx95, %.preheader ]
  %27 = load i8, ptr %.266104, align 1, !tbaa !4
  %28 = add i8 %27, -58
  %29 = icmp ult i8 %28, -10
  br i1 %29, label %.critedge, label %30

30:                                               ; preds = %.lr.ph106
  %31 = icmp slt i64 %.376.idx102, 128
  br i1 %31, label %32, label %34

32:                                               ; preds = %30
  %.376.add = add nuw nsw i64 %.376.idx102, 1
  store i8 %27, ptr %.376.ptr105, align 1, !tbaa !4
  %33 = add nsw i32 %.1103, -1
  br label %34

34:                                               ; preds = %32, %30
  %.477.idx = phi i64 [ %.376.add, %32 ], [ %.376.idx102, %30 ]
  %.2 = phi i32 [ %33, %32 ], [ %.1103, %30 ]
  %.266 = getelementptr inbounds nuw i8, ptr %.266104, i64 1
  %.376.ptr = getelementptr inbounds nuw i8, ptr %3, i64 %.477.idx
  %35 = icmp ult ptr %.266, %5
  br i1 %35, label %.lr.ph106, label %.critedge

.critedge:                                        ; preds = %21, %.lr.ph106, %34, %10, %.preheader, %24
  %.07893 = phi i32 [ %.07894, %24 ], [ %.07894, %.preheader ], [ 0, %10 ], [ %.07894, %34 ], [ %.07894, %.lr.ph106 ], [ %.179, %21 ]
  %.275 = phi ptr [ %.073.ptr.ptr97, %24 ], [ %.376.ptr101, %.preheader ], [ %3, %10 ], [ %.376.ptr105, %.lr.ph106 ], [ %.376.ptr, %34 ], [ %.073.ptr.ptr, %21 ]
  %.165 = phi ptr [ %.06496, %24 ], [ %.266100, %.preheader ], [ %11, %10 ], [ %.266104, %.lr.ph106 ], [ %.266, %34 ], [ %22, %21 ]
  %.0 = phi i32 [ 0, %24 ], [ 0, %.preheader ], [ 0, %10 ], [ %.1103, %.lr.ph106 ], [ %.2, %34 ], [ 0, %21 ]
  %36 = getelementptr inbounds nuw i8, ptr %.165, i64 1
  %37 = icmp ult ptr %36, %5
  br i1 %37, label %38, label %64

38:                                               ; preds = %.critedge
  %39 = load i8, ptr %.165, align 1, !tbaa !4
  switch i8 %39, label %64 [
    i8 101, label %40
    i8 69, label %40
  ]

40:                                               ; preds = %38, %38
  %41 = getelementptr inbounds nuw i8, ptr %.165, i64 2
  %42 = icmp ult ptr %41, %5
  br i1 %42, label %43, label %46

43:                                               ; preds = %40
  %44 = load i8, ptr %36, align 1, !tbaa !4
  switch i8 %44, label %.fold.split [
    i8 45, label %46
    i8 43, label %45
  ]

45:                                               ; preds = %43
  br label %46

.fold.split:                                      ; preds = %43
  br label %46

46:                                               ; preds = %43, %.fold.split, %45, %40
  %.070 = phi i1 [ false, %45 ], [ false, %40 ], [ true, %43 ], [ false, %.fold.split ]
  %.068 = phi ptr [ %41, %45 ], [ %36, %40 ], [ %41, %43 ], [ %36, %.fold.split ]
  %47 = load i8, ptr %.068, align 1, !tbaa !4
  %48 = add i8 %47, -48
  %49 = icmp ult i8 %48, 10
  br i1 %49, label %50, label %64

50:                                               ; preds = %46
  %51 = zext nneg i8 %48 to i32
  %.4114 = getelementptr inbounds nuw i8, ptr %.068, i64 1
  %52 = icmp ult ptr %.4114, %5
  br i1 %52, label %.lr.ph117, label %._crit_edge

.lr.ph117:                                        ; preds = %50, %56
  %.4116 = phi ptr [ %.4, %56 ], [ %.4114, %50 ]
  %.063115 = phi i32 [ %59, %56 ], [ %51, %50 ]
  %53 = load i8, ptr %.4116, align 1, !tbaa !4
  %54 = add i8 %53, -48
  %55 = icmp ugt i8 %54, 9
  br i1 %55, label %._crit_edge, label %56

56:                                               ; preds = %.lr.ph117
  %57 = zext nneg i8 %54 to i32
  %58 = mul nsw i32 %.063115, 10
  %59 = add nsw i32 %58, %57
  %.4 = getelementptr inbounds nuw i8, ptr %.4116, i64 1
  %60 = icmp ult ptr %.4, %5
  br i1 %60, label %.lr.ph117, label %._crit_edge

._crit_edge:                                      ; preds = %56, %.lr.ph117, %50
  %.063.lcssa = phi i32 [ %51, %50 ], [ %.063115, %.lr.ph117 ], [ %59, %56 ]
  %.4.lcssa = phi ptr [ %.4114, %50 ], [ %.4116, %.lr.ph117 ], [ %.4, %56 ]
  %61 = sub nsw i32 0, %.063.lcssa
  %62 = select i1 %.070, i32 %61, i32 %.063.lcssa
  %63 = add nsw i32 %62, %.0
  br label %64

64:                                               ; preds = %38, %46, %._crit_edge, %.critedge
  %.367 = phi ptr [ %.4.lcssa, %._crit_edge ], [ %.165, %46 ], [ %.165, %.critedge ], [ %.165, %38 ]
  %.3 = phi i32 [ %63, %._crit_edge ], [ %.0, %46 ], [ %.0, %.critedge ], [ %.0, %38 ]
  store ptr %.367, ptr %0, align 8, !tbaa !7
  %65 = add nsw i32 %.3, %.07893
  %66 = ptrtoint ptr %.275 to i64
  %67 = ptrtoint ptr %3 to i64
  %68 = sub i64 %66, %67
  %69 = call double @lexbor_strtod_internal(ptr noundef nonnull %3, i64 noundef %68, i32 noundef %65) #6
  %70 = fneg double %69
  %.069 = select i1 %.172, double %70, double %69
  call void @llvm.lifetime.end.p0(i64 128, ptr nonnull %3) #6
  ret double %.069
}